target datalayout = "e-m:e-p270:32:32-p271:32:32-p272:64:64-i64:64-i128:128-f80:128-n8:16:32:64-S128"
target triple = "x86_64-unknown-linux-gnu"

%"class.v8::LocalBase.3" = type { %"class.v8::IndirectHandleBase" }
%"class.v8::IndirectHandleBase" = type { ptr }
%"class.v8::Local.2" = type { %"class.v8::LocalBase.3" }

@.str.45 = private unnamed_addr constant [84 x i8] c"Accessing Object.prototype.__proto__ has been disallowed with --disable-proto=throw\00", align 1

; Function Attrs: mustprogress nounwind uwtable
define linkonce_odr dso_local void @_ZN4node22THROW_ERR_PROTO_ACCESSEPN2v87IsolateE(ptr noundef %isolate) #4 comdat {
entry:
  %isolate.addr = alloca ptr, align 8
  %agg.tmp = alloca %"class.v8::Local.2", align 8
  %coerce = alloca %"class.v8::Local.2", align 8
  store ptr %isolate, ptr %isolate.addr, align 8
  %0 = load ptr, ptr %isolate.addr, align 8
  %1 = load ptr, ptr %isolate.addr, align 8
  %call = call ptr @_ZN4node16ERR_PROTO_ACCESSIJEEEN2v85LocalINS1_5ValueEEEPNS1_7IsolateEPKcDpOT_(ptr noundef %1, ptr noundef @.str.45)
  %coerce.dive = getelementptr inbounds %"class.v8::Local.2", ptr %agg.tmp, i32 0, i32 0
  %coerce.dive1 = getelementptr inbounds %"class.v8::LocalBase.3", ptr %coerce.dive, i32 0, i32 0
  %coerce.dive2 = getelementptr inbounds %"class.v8::IndirectHandleBase", ptr %coerce.dive1, i32 0, i32 0
  store ptr %call, ptr %coerce.dive2, align 8
  %coerce.dive3 = getelementptr inbounds %"class.v8::Local.2", ptr %agg.tmp, i32 0, i32 0
  %coerce.dive4 = getelementptr inbounds %"class.v8::LocalBase.3", ptr %coerce.dive3, i32 0, i32 0
  %coerce.dive5 = getelementptr inbounds %"class.v8::IndirectHandleBase", ptr %coerce.dive4, i32 0, i32 0
  %2 = load ptr, ptr %coerce.dive5, align 8
  %call6 = call ptr @_ZN2v87Isolate14ThrowExceptionENS_5LocalINS_5ValueEEE(ptr noundef nonnull align 1 dereferenceable(1) %0, ptr %2)
  %coerce.dive7 = getelementptr inbounds %"class.v8::Local.2", ptr %coerce, i32 0, i32 0
  %coerce.dive8 = getelementptr inbounds %"class.v8::LocalBase.3", ptr %coerce.dive7, i32 0, i32 0
  %coerce.dive9 = getelementptr inbounds %"class.v8::IndirectHandleBase", ptr %coerce.dive8, i32 0, i32 0
  store ptr %call6, ptr %coerce.dive9, align 8
  ret void
}

; Function Attrs: mustprogress nounwind uwtable
define dso_local void @_ZN4node12ProtoThrowerERKN2v820FunctionCallbackInfoINS0_5ValueEEE(ptr noundef nonnull align 8 dereferenceable(20) %info) #4 {
entry:
  %this.addr.i = alloca ptr, align 8
  %info.addr = alloca ptr, align 8
  store ptr %info, ptr %info.addr, align 8
  %0 = load ptr, ptr %info.addr, align 8
  store ptr %0, ptr %this.addr.i, align 8
  %this1.i = load ptr, ptr %this.addr.i, align 8
  %1 = load ptr, ptr %this1.i, align 8
  %arrayidx.i = getelementptr inbounds i64, ptr %1, i64 1
  %2 = load ptr, ptr %arrayidx.i, align 8
  call void @_ZN4node22THROW_ERR_PROTO_ACCESSEPN2v87IsolateE(ptr noundef %2)
  ret void
}