; Function Attrs: mustprogress nounwind uwtable
define dso_local void @_ZN4node12ProtoThrowerERKN2v820FunctionCallbackInfoINS0_5ValueEEE(ptr nocapture noundef nonnull readonly align 8 dereferenceable(20) %info) #3 {
entry:
  %0 = load ptr, ptr %info, align 8
  %arrayidx.i = getelementptr inbounds i8, ptr %0, i64 8
  %1 = load ptr, ptr %arrayidx.i, align 8
  %call.i = tail call ptr @_ZN4node16ERR_PROTO_ACCESSIJEEEN2v85LocalINS1_5ValueEEEPNS1_7IsolateEPKcDpOT_(ptr noundef %1, ptr noundef nonnull @.str.45)
  %call6.i = tail call ptr @_ZN2v87Isolate14ThrowExceptionENS_5LocalINS_5ValueEEE(ptr noundef nonnull align 1 dereferenceable(1) %1, ptr %call.i) #12
  ret void
}